; Function Attrs: mustprogress nounwind uwtable
define hidden void @_ZN6hermes3hbc24PrettyDisassembleVisitor17dumpOperandBigIntEjRN4llvh11raw_ostreamE(ptr nocapture noundef nonnull readonly align 8 dereferenceable(68) %this, i32 noundef %bigintID, ptr noundef nonnull align 8 dereferenceable(36) %OS) local_unnamed_addr #1 align 2 {
entry:
  %ref.tmp8 = alloca %"class.std::__cxx11::basic_string", align 8
  %bcProvider_ = getelementptr inbounds i8, ptr %this, i64 8
  %0 = load ptr, ptr %bcProvider_, align 8
  %bigIntStorage_.i = getelementptr inbounds i8, ptr %0, i64 136
  %retval.sroa.0.0.copyload.i = load ptr, ptr %bigIntStorage_.i, align 8
  %bigIntTable_.i = getelementptr inbounds i8, ptr %0, i64 120
  %retval.sroa.0.0.copyload.i2 = load ptr, ptr %bigIntTable_.i, align 8
  %conv = zext i32 %bigintID to i64
  %arrayidx.i = getelementptr inbounds %"struct.hermes::bigint::BigIntTableEntry", ptr %retval.sroa.0.0.copyload.i2, i64 %conv
  %length = getelementptr inbounds i8, ptr %arrayidx.i, i64 4
  %1 = load i32, ptr %length, align 4
  %2 = load i32, ptr %arrayidx.i, align 4
  %conv9 = zext i32 %2 to i64
  %conv10 = zext i32 %1 to i64
  %add.ptr.i = getelementptr inbounds i8, ptr %retval.sroa.0.0.copyload.i, i64 %conv9
  call fastcc void @_ZN6hermes3hbcL36bigintMagnitudeToLengthLimitedStringB5cxx11EN4llvh8ArrayRefIhEE(ptr noalias nonnull align 8 %ref.tmp8, ptr %add.ptr.i, i64 %conv10)
  %call.i = call noundef ptr @_ZNKSt7__cxx1112basic_stringIcSt11char_traitsIcESaIcEE4dataEv(ptr noundef nonnull align 8 dereferenceable(32) %ref.tmp8) #17
  %call2.i = call noundef i64 @_ZNKSt7__cxx1112basic_stringIcSt11char_traitsIcESaIcEE6lengthEv(ptr noundef nonnull align 8 dereferenceable(32) %ref.tmp8) #17
  %call3.i = call noundef nonnull align 8 dereferenceable(36) ptr @_ZN4llvh11raw_ostream5writeEPKcm(ptr noundef nonnull align 8 dereferenceable(36) %OS, ptr noundef %call.i, i64 noundef %call2.i) #17
  %OutBufEnd.i5.i = getelementptr inbounds i8, ptr %call3.i, i64 16
  %3 = load ptr, ptr %OutBufEnd.i5.i, align 8
  %OutBufCur.i6.i = getelementptr inbounds i8, ptr %call3.i, i64 24
  %4 = load ptr, ptr %OutBufCur.i6.i, align 8
  %cmp.i.i = icmp eq ptr %3, %4
  br i1 %cmp.i.i, label %if.then.i.i, label %if.then4.i.i

if.then.i.i:                                      ; preds = %entry
  %call3.i.i = call noundef nonnull align 8 dereferenceable(36) ptr @_ZN4llvh11raw_ostream5writeEPKcm(ptr noundef nonnull align 8 dereferenceable(36) %call3.i, ptr noundef nonnull @.str.49, i64 noundef 1) #17
  br label %_ZN4llvh11raw_ostreamlsEPKc.exit

if.then4.i.i:                                     ; preds = %entry
  store i8 110, ptr %4, align 1
  %5 = load ptr, ptr %OutBufCur.i6.i, align 8
  %add.ptr.i.i = getelementptr inbounds i8, ptr %5, i64 1
  store ptr %add.ptr.i.i, ptr %OutBufCur.i6.i, align 8
  br label %_ZN4llvh11raw_ostreamlsEPKc.exit

_ZN4llvh11raw_ostreamlsEPKc.exit:                 ; preds = %if.then.i.i, %if.then4.i.i
  call void @_ZNSt7__cxx1112basic_stringIcSt11char_traitsIcESaIcEED1Ev(ptr noundef nonnull align 8 dereferenceable(32) %ref.tmp8) #17
  ret void
}